target datalayout = "e-m:e-p270:32:32-p271:32:32-p272:64:64-i64:64-i128:128-f80:128-n8:16:32:64-S128"
target triple = "x86_64-pc-linux-gnu"

@exit_code = dso_local global i32 0, align 4
@stderr = external global ptr, align 8
@.str.70 = private unnamed_addr constant [21 x i8] c"Not valid report %s\0A\00", align 1
@.str.81 = private unnamed_addr constant [4 x i8] c"Top\00", align 1
@.str.82 = private unnamed_addr constant [25 x i8] c"Valid user reports are, \00", align 1
@.str.83 = private unnamed_addr constant [7 x i8] c"\22Top\22\0A\00", align 1

; Function Attrs: nounwind uwtable
define internal void @_user_rep(i32 noundef %0, ptr noundef %1) #0 {
  %3 = alloca i32, align 4
  %4 = alloca ptr, align 8
  %5 = alloca i32, align 4
  store i32 %0, ptr %3, align 4
  store ptr %1, ptr %4, align 8
  call void @llvm.lifetime.start.p0(i64 4, ptr %5) #11
  store i32 0, ptr %5, align 4
  %6 = load ptr, ptr %4, align 8
  %7 = getelementptr inbounds ptr, ptr %6, i64 0
  %8 = load ptr, ptr %7, align 8
  %9 = call i32 @xstrncasecmp(ptr noundef %8, ptr noundef @.str.81, i64 noundef 1)
  %10 = icmp eq i32 %9, 0
  br i1 %10, label %11, label %17

11:                                               ; preds = %2
  %12 = load i32, ptr %3, align 4
  %13 = sub nsw i32 %12, 1
  %14 = load ptr, ptr %4, align 8
  %15 = getelementptr inbounds ptr, ptr %14, i64 1
  %16 = call i32 @user_top(i32 noundef %13, ptr noundef %15)
  store i32 %16, ptr %5, align 4
  br label %27

17:                                               ; preds = %2
  store i32 1, ptr @exit_code, align 4
  %18 = load ptr, ptr @stderr, align 8
  %19 = load ptr, ptr %4, align 8
  %20 = getelementptr inbounds ptr, ptr %19, i64 0
  %21 = load ptr, ptr %20, align 8
  %22 = call i32 (ptr, ptr, ...) @fprintf(ptr noundef %18, ptr noundef @.str.70, ptr noundef %21) #11
  %23 = load ptr, ptr @stderr, align 8
  %24 = call i32 (ptr, ptr, ...) @fprintf(ptr noundef %23, ptr noundef @.str.82) #11
  %25 = load ptr, ptr @stderr, align 8
  %26 = call i32 (ptr, ptr, ...) @fprintf(ptr noundef %25, ptr noundef @.str.83) #11
  br label %27

27:                                               ; preds = %17, %11
  %28 = load i32, ptr %5, align 4
  %29 = icmp ne i32 %28, 0
  br i1 %29, label %30, label %31

30:                                               ; preds = %27
  store i32 1, ptr @exit_code, align 4
  br label %31

31:                                               ; preds = %30, %27
  call void @llvm.lifetime.end.p0(i64 4, ptr %5) #11
  ret void
}